; Function Attrs: nofree norecurse nosync nounwind memory(readwrite, inaccessiblemem: none) uwtable
define internal void @ff_tx_fft1024_ns_int32_c(ptr readnone captures(none) %0, ptr noundef initializes((0, 128)) %1, ptr noundef readonly captures(none) %2, i64 %3) #10 {
  tail call void @ff_tx_fft256_ns_int32_c(ptr readnone poison, ptr noundef %1, ptr noundef readonly %2, i64 poison)
  %5 = getelementptr inbounds nuw i8, ptr %1, i64 2048
  %6 = getelementptr inbounds nuw i8, ptr %2, i64 2048
  tail call void @ff_tx_fft128_ns_int32_c(ptr readnone poison, ptr noundef nonnull %5, ptr noundef nonnull readonly %6, i64 poison)
  %7 = getelementptr inbounds nuw i8, ptr %1, i64 3072
  %8 = getelementptr inbounds nuw i8, ptr %2, i64 3072
  tail call void @ff_tx_fft128_ns_int32_c(ptr readnone poison, ptr noundef nonnull %7, ptr noundef nonnull readonly %8, i64 poison)
  tail call fastcc void @ff_tx_fft_sr_combine_int32_c(ptr noundef %1, ptr noundef nonnull @ff_tx_tab_512_int32, i32 noundef 64)
  %9 = getelementptr inbounds nuw i8, ptr %1, i64 4096
  %10 = getelementptr inbounds nuw i8, ptr %2, i64 4096
  tail call void @ff_tx_fft256_ns_int32_c(ptr poison, ptr noundef nonnull %9, ptr noundef nonnull %10, i64 poison)
  %11 = getelementptr inbounds nuw i8, ptr %1, i64 6144
  %12 = getelementptr inbounds nuw i8, ptr %2, i64 6144
  tail call void @ff_tx_fft256_ns_int32_c(ptr poison, ptr noundef nonnull %11, ptr noundef nonnull %12, i64 poison)
  tail call fastcc void @ff_tx_fft_sr_combine_int32_c(ptr noundef %1, ptr noundef nonnull @ff_tx_tab_1024_int32, i32 noundef 128)
  ret void
}